target datalayout = "e-m:e-p270:32:32-p271:32:32-p272:64:64-i64:64-i128:128-f80:128-n8:16:32:64-S128"
target triple = "x86_64-pc-linux-gnu"

%"class.zmq::socket_poller_t" = type { i32, ptr, %"class.std::vector", i8, i8, i32, ptr }
%"class.std::vector" = type { %"struct.std::_Vector_base" }
%"struct.std::_Vector_base" = type { %"struct.std::_Vector_base<zmq::socket_poller_t::item_t, std::allocator<zmq::socket_poller_t::item_t>>::_Vector_impl" }
%"struct.std::_Vector_base<zmq::socket_poller_t::item_t, std::allocator<zmq::socket_poller_t::item_t>>::_Vector_impl" = type { %"struct.std::_Vector_base<zmq::socket_poller_t::item_t, std::allocator<zmq::socket_poller_t::item_t>>::_Vector_impl_data" }
%"struct.std::_Vector_base<zmq::socket_poller_t::item_t, std::allocator<zmq::socket_poller_t::item_t>>::_Vector_impl_data" = type { ptr, ptr, ptr }

; Function Attrs: mustprogress uwtable
define noundef i32 @_ZNK3zmq15socket_poller_t11signaler_fdEPi(ptr noundef nonnull align 8 dereferenceable(56) %0, ptr noundef %1) #0 align 2 {
  %3 = alloca i32, align 4
  %4 = alloca ptr, align 8
  %5 = alloca ptr, align 8
  store ptr %0, ptr %4, align 8, !tbaa !3
  store ptr %1, ptr %5, align 8, !tbaa !55
  %6 = load ptr, ptr %4, align 8
  %7 = getelementptr inbounds nuw %"class.zmq::socket_poller_t", ptr %6, i32 0, i32 1
  %8 = load ptr, ptr %7, align 8, !tbaa !19
  %9 = icmp ne ptr %8, null
  br i1 %9, label %10, label %15

10:                                               ; preds = %2
  %11 = getelementptr inbounds nuw %"class.zmq::socket_poller_t", ptr %6, i32 0, i32 1
  %12 = load ptr, ptr %11, align 8, !tbaa !19
  %13 = call noundef i32 @_ZNK3zmq10signaler_t6get_fdEv(ptr noundef nonnull align 4 dereferenceable(12) %12)
  %14 = load ptr, ptr %5, align 8, !tbaa !55
  store i32 %13, ptr %14, align 4, !tbaa !35
  store i32 0, ptr %3, align 4
  br label %17

15:                                               ; preds = %2
  %16 = call ptr @__errno_location() #19
  store i32 22, ptr %16, align 4, !tbaa !35
  store i32 -1, ptr %3, align 4
  br label %17

17:                                               ; preds = %15, %10
  %18 = load i32, ptr %3, align 4
  ret i32 %18
}