; Function Attrs: mustprogress uwtable
define noundef range(i32 -1, 1) i32 @_ZNK3zmq15socket_poller_t11signaler_fdEPi(ptr noundef nonnull readonly align 8 captures(none) dereferenceable(56) %0, ptr noundef writeonly captures(none) %1) local_unnamed_addr #0 align 2 {
  %3 = getelementptr inbounds nuw i8, ptr %0, i64 8
  %4 = load ptr, ptr %3, align 8, !tbaa !33
  %.not = icmp eq ptr %4, null
  br i1 %.not, label %7, label %5

5:                                                ; preds = %2
  %6 = tail call noundef i32 @_ZNK3zmq10signaler_t6get_fdEv(ptr noundef nonnull align 4 dereferenceable(12) %4)
  store i32 %6, ptr %1, align 4, !tbaa !32
  br label %9

7:                                                ; preds = %2
  %8 = tail call ptr @__errno_location() #26
  store i32 22, ptr %8, align 4, !tbaa !32
  br label %9

9:                                                ; preds = %7, %5
  %.0 = phi i32 [ 0, %5 ], [ -1, %7 ]
  ret i32 %.0
}